; Function Attrs: mustprogress nofree norecurse nosync nounwind willreturn memory(argmem: read) uwtable
define internal noundef zeroext i1 @_ZNK4base12_GLOBAL__N_117SampleMapIterator4DoneEv(ptr nocapture noundef nonnull readonly align 8 dereferenceable(24) %this) unnamed_addr #9 align 2 {
entry:
  %iter_ = getelementptr inbounds i8, ptr %this, i64 8
  %end_ = getelementptr inbounds i8, ptr %this, i64 16
  %0 = load ptr, ptr %iter_, align 8
  %1 = load ptr, ptr %end_, align 8
  %cmp.i = icmp eq ptr %0, %1
  ret i1 %cmp.i
}